target datalayout = "e-m:e-p270:32:32-p271:32:32-p272:64:64-i64:64-i128:128-f80:128-n8:16:32:64-S128"
target triple = "x86_64-pc-linux-gnu"

%struct.jpeg_decompress_struct = type { ptr, ptr, ptr, ptr, i32, i32, ptr, i32, i32, i32, i32, i32, i32, i32, double, i32, i32, i32, i32, i32, i32, i32, i32, i32, i32, i32, i32, i32, i32, i32, i32, i32, i32, ptr, i32, i32, i32, i32, i32, ptr, [4 x ptr], [4 x ptr], [4 x ptr], i32, ptr, i32, i32, [16 x i8], [16 x i8], [16 x i8], i32, i32, i8, i8, i8, i16, i16, i32, i8, i32, ptr, i32, i32, i32, i32, ptr, i32, [4 x ptr], i32, i32, i32, [10 x i32], i32, i32, i32, i32, i32, ptr, ptr, ptr, ptr, ptr, ptr, ptr, ptr, ptr, ptr, ptr }
%struct.my_color_deconverter = type { %struct.jpeg_color_deconverter, ptr, ptr, ptr, ptr, ptr }
%struct.jpeg_color_deconverter = type { ptr, ptr, ptr, ptr }

; Function Attrs: nounwind uwtable
define internal void @ycck_cmyk_convert(ptr noundef %0, ptr noundef %1, i32 noundef %2, ptr noundef %3, i32 noundef %4) #0 {
  %6 = alloca ptr, align 8
  %7 = alloca ptr, align 8
  %8 = alloca i32, align 4
  %9 = alloca ptr, align 8
  %10 = alloca i32, align 4
  %11 = alloca ptr, align 8
  %12 = alloca i32, align 4
  %13 = alloca i32, align 4
  %14 = alloca i32, align 4
  %15 = alloca ptr, align 8
  %16 = alloca ptr, align 8
  %17 = alloca ptr, align 8
  %18 = alloca ptr, align 8
  %19 = alloca ptr, align 8
  %20 = alloca i32, align 4
  %21 = alloca i32, align 4
  %22 = alloca ptr, align 8
  %23 = alloca ptr, align 8
  %24 = alloca ptr, align 8
  %25 = alloca ptr, align 8
  %26 = alloca ptr, align 8
  store ptr %0, ptr %6, align 8
  store ptr %1, ptr %7, align 8
  store i32 %2, ptr %8, align 4
  store ptr %3, ptr %9, align 8
  store i32 %4, ptr %10, align 4
  %27 = load ptr, ptr %6, align 8
  %28 = getelementptr inbounds %struct.jpeg_decompress_struct, ptr %27, i32 0, i32 86
  %29 = load ptr, ptr %28, align 8
  store ptr %29, ptr %11, align 8
  %30 = load ptr, ptr %6, align 8
  %31 = getelementptr inbounds %struct.jpeg_decompress_struct, ptr %30, i32 0, i32 27
  %32 = load i32, ptr %31, align 8
  store i32 %32, ptr %21, align 4
  %33 = load ptr, ptr %6, align 8
  %34 = getelementptr inbounds %struct.jpeg_decompress_struct, ptr %33, i32 0, i32 65
  %35 = load ptr, ptr %34, align 8
  store ptr %35, ptr %22, align 8
  %36 = load ptr, ptr %11, align 8
  %37 = getelementptr inbounds %struct.my_color_deconverter, ptr %36, i32 0, i32 1
  %38 = load ptr, ptr %37, align 8
  store ptr %38, ptr %23, align 8
  %39 = load ptr, ptr %11, align 8
  %40 = getelementptr inbounds %struct.my_color_deconverter, ptr %39, i32 0, i32 2
  %41 = load ptr, ptr %40, align 8
  store ptr %41, ptr %24, align 8
  %42 = load ptr, ptr %11, align 8
  %43 = getelementptr inbounds %struct.my_color_deconverter, ptr %42, i32 0, i32 3
  %44 = load ptr, ptr %43, align 8
  store ptr %44, ptr %25, align 8
  %45 = load ptr, ptr %11, align 8
  %46 = getelementptr inbounds %struct.my_color_deconverter, ptr %45, i32 0, i32 4
  %47 = load ptr, ptr %46, align 8
  store ptr %47, ptr %26, align 8
  br label %48

48:                                               ; preds = %171, %5
  %49 = load i32, ptr %10, align 4
  %50 = add nsw i32 %49, -1
  store i32 %50, ptr %10, align 4
  %51 = icmp sge i32 %50, 0
  br i1 %51, label %52, label %172

52:                                               ; preds = %48
  %53 = load ptr, ptr %7, align 8
  %54 = getelementptr inbounds ptr, ptr %53, i64 0
  %55 = load ptr, ptr %54, align 8
  %56 = load i32, ptr %8, align 4
  %57 = zext i32 %56 to i64
  %58 = getelementptr inbounds ptr, ptr %55, i64 %57
  %59 = load ptr, ptr %58, align 8
  store ptr %59, ptr %16, align 8
  %60 = load ptr, ptr %7, align 8
  %61 = getelementptr inbounds ptr, ptr %60, i64 1
  %62 = load ptr, ptr %61, align 8
  %63 = load i32, ptr %8, align 4
  %64 = zext i32 %63 to i64
  %65 = getelementptr inbounds ptr, ptr %62, i64 %64
  %66 = load ptr, ptr %65, align 8
  store ptr %66, ptr %17, align 8
  %67 = load ptr, ptr %7, align 8
  %68 = getelementptr inbounds ptr, ptr %67, i64 2
  %69 = load ptr, ptr %68, align 8
  %70 = load i32, ptr %8, align 4
  %71 = zext i32 %70 to i64
  %72 = getelementptr inbounds ptr, ptr %69, i64 %71
  %73 = load ptr, ptr %72, align 8
  store ptr %73, ptr %18, align 8
  %74 = load ptr, ptr %7, align 8
  %75 = getelementptr inbounds ptr, ptr %74, i64 3
  %76 = load ptr, ptr %75, align 8
  %77 = load i32, ptr %8, align 4
  %78 = zext i32 %77 to i64
  %79 = getelementptr inbounds ptr, ptr %76, i64 %78
  %80 = load ptr, ptr %79, align 8
  store ptr %80, ptr %19, align 8
  %81 = load i32, ptr %8, align 4
  %82 = add i32 %81, 1
  store i32 %82, ptr %8, align 4
  %83 = load ptr, ptr %9, align 8
  %84 = getelementptr inbounds ptr, ptr %83, i32 1
  store ptr %84, ptr %9, align 8
  %85 = load ptr, ptr %83, align 8
  store ptr %85, ptr %15, align 8
  store i32 0, ptr %20, align 4
  br label %86

86:                                               ; preds = %168, %52
  %87 = load i32, ptr %20, align 4
  %88 = load i32, ptr %21, align 4
  %89 = icmp ult i32 %87, %88
  br i1 %89, label %90, label %171

90:                                               ; preds = %86
  %91 = load ptr, ptr %16, align 8
  %92 = load i32, ptr %20, align 4
  %93 = zext i32 %92 to i64
  %94 = getelementptr inbounds i8, ptr %91, i64 %93
  %95 = load i8, ptr %94, align 1
  %96 = zext i8 %95 to i32
  store i32 %96, ptr %12, align 4
  %97 = load ptr, ptr %17, align 8
  %98 = load i32, ptr %20, align 4
  %99 = zext i32 %98 to i64
  %100 = getelementptr inbounds i8, ptr %97, i64 %99
  %101 = load i8, ptr %100, align 1
  %102 = zext i8 %101 to i32
  store i32 %102, ptr %13, align 4
  %103 = load ptr, ptr %18, align 8
  %104 = load i32, ptr %20, align 4
  %105 = zext i32 %104 to i64
  %106 = getelementptr inbounds i8, ptr %103, i64 %105
  %107 = load i8, ptr %106, align 1
  %108 = zext i8 %107 to i32
  store i32 %108, ptr %14, align 4
  %109 = load ptr, ptr %22, align 8
  %110 = load i32, ptr %12, align 4
  %111 = load ptr, ptr %23, align 8
  %112 = load i32, ptr %14, align 4
  %113 = sext i32 %112 to i64
  %114 = getelementptr inbounds i32, ptr %111, i64 %113
  %115 = load i32, ptr %114, align 4
  %116 = add nsw i32 %110, %115
  %117 = sub nsw i32 255, %116
  %118 = sext i32 %117 to i64
  %119 = getelementptr inbounds i8, ptr %109, i64 %118
  %120 = load i8, ptr %119, align 1
  %121 = load ptr, ptr %15, align 8
  %122 = getelementptr inbounds i8, ptr %121, i64 0
  store i8 %120, ptr %122, align 1
  %123 = load ptr, ptr %22, align 8
  %124 = load i32, ptr %12, align 4
  %125 = load ptr, ptr %26, align 8
  %126 = load i32, ptr %13, align 4
  %127 = sext i32 %126 to i64
  %128 = getelementptr inbounds i64, ptr %125, i64 %127
  %129 = load i64, ptr %128, align 8
  %130 = load ptr, ptr %25, align 8
  %131 = load i32, ptr %14, align 4
  %132 = sext i32 %131 to i64
  %133 = getelementptr inbounds i64, ptr %130, i64 %132
  %134 = load i64, ptr %133, align 8
  %135 = add nsw i64 %129, %134
  %136 = ashr i64 %135, 16
  %137 = trunc i64 %136 to i32
  %138 = add nsw i32 %124, %137
  %139 = sub nsw i32 255, %138
  %140 = sext i32 %139 to i64
  %141 = getelementptr inbounds i8, ptr %123, i64 %140
  %142 = load i8, ptr %141, align 1
  %143 = load ptr, ptr %15, align 8
  %144 = getelementptr inbounds i8, ptr %143, i64 1
  store i8 %142, ptr %144, align 1
  %145 = load ptr, ptr %22, align 8
  %146 = load i32, ptr %12, align 4
  %147 = load ptr, ptr %24, align 8
  %148 = load i32, ptr %13, align 4
  %149 = sext i32 %148 to i64
  %150 = getelementptr inbounds i32, ptr %147, i64 %149
  %151 = load i32, ptr %150, align 4
  %152 = add nsw i32 %146, %151
  %153 = sub nsw i32 255, %152
  %154 = sext i32 %153 to i64
  %155 = getelementptr inbounds i8, ptr %145, i64 %154
  %156 = load i8, ptr %155, align 1
  %157 = load ptr, ptr %15, align 8
  %158 = getelementptr inbounds i8, ptr %157, i64 2
  store i8 %156, ptr %158, align 1
  %159 = load ptr, ptr %19, align 8
  %160 = load i32, ptr %20, align 4
  %161 = zext i32 %160 to i64
  %162 = getelementptr inbounds i8, ptr %159, i64 %161
  %163 = load i8, ptr %162, align 1
  %164 = load ptr, ptr %15, align 8
  %165 = getelementptr inbounds i8, ptr %164, i64 3
  store i8 %163, ptr %165, align 1
  %166 = load ptr, ptr %15, align 8
  %167 = getelementptr inbounds i8, ptr %166, i64 4
  store ptr %167, ptr %15, align 8
  br label %168

168:                                              ; preds = %90
  %169 = load i32, ptr %20, align 4
  %170 = add i32 %169, 1
  store i32 %170, ptr %20, align 4
  br label %86, !llvm.loop !83

171:                                              ; preds = %86
  br label %48, !llvm.loop !84

172:                                              ; preds = %48
  ret void
}