; Function Attrs: nofree norecurse nosync nounwind memory(readwrite, inaccessiblemem: none) uwtable
define internal void @ycck_cmyk_convert(ptr nocapture noundef readonly %0, ptr nocapture noundef readonly %1, i32 noundef %2, ptr nocapture noundef readonly %3, i32 noundef %4) #2 {
  %6 = getelementptr inbounds i8, ptr %0, i64 616
  %7 = load ptr, ptr %6, align 8
  %8 = getelementptr inbounds i8, ptr %0, i64 136
  %9 = load i32, ptr %8, align 8
  %10 = getelementptr inbounds i8, ptr %0, i64 424
  %11 = load ptr, ptr %10, align 8
  %12 = getelementptr inbounds i8, ptr %7, i64 32
  %13 = load ptr, ptr %12, align 8
  %14 = getelementptr inbounds i8, ptr %7, i64 40
  %15 = load ptr, ptr %14, align 8
  %16 = getelementptr inbounds i8, ptr %7, i64 48
  %17 = load ptr, ptr %16, align 8
  %18 = getelementptr inbounds i8, ptr %7, i64 56
  %19 = load ptr, ptr %18, align 8
  %20 = icmp sgt i32 %4, 0
  br i1 %20, label %.lr.ph62, label %._crit_edge

.lr.ph62:                                         ; preds = %5
  %21 = getelementptr inbounds i8, ptr %1, i64 8
  %22 = getelementptr inbounds i8, ptr %1, i64 16
  %23 = getelementptr inbounds i8, ptr %1, i64 24
  %.not = icmp eq i32 %9, 0
  br i1 %.not, label %._crit_edge, label %.lr.ph.us.preheader

.lr.ph.us.preheader:                              ; preds = %.lr.ph62
  %wide.trip.count = zext i32 %9 to i64
  br label %.lr.ph.us

.lr.ph.us:                                        ; preds = %.lr.ph.us.preheader, %..loopexit_crit_edge.us
  %.in = phi i32 [ %24, %..loopexit_crit_edge.us ], [ %4, %.lr.ph.us.preheader ]
  %.061.us = phi i32 [ %38, %..loopexit_crit_edge.us ], [ %2, %.lr.ph.us.preheader ]
  %.04760.us = phi ptr [ %79, %..loopexit_crit_edge.us ], [ %3, %.lr.ph.us.preheader ]
  %24 = add nsw i32 %.in, -1
  %25 = load ptr, ptr %1, align 8
  %26 = zext i32 %.061.us to i64
  %27 = getelementptr inbounds ptr, ptr %25, i64 %26
  %28 = load ptr, ptr %27, align 8
  %29 = load ptr, ptr %21, align 8
  %30 = getelementptr inbounds ptr, ptr %29, i64 %26
  %31 = load ptr, ptr %30, align 8
  %32 = load ptr, ptr %22, align 8
  %33 = getelementptr inbounds ptr, ptr %32, i64 %26
  %34 = load ptr, ptr %33, align 8
  %35 = load ptr, ptr %23, align 8
  %36 = getelementptr inbounds ptr, ptr %35, i64 %26
  %37 = load ptr, ptr %36, align 8
  %38 = add i32 %.061.us, 1
  %39 = load ptr, ptr %.04760.us, align 8
  br label %40

40:                                               ; preds = %.lr.ph.us, %40
  %indvars.iv = phi i64 [ 0, %.lr.ph.us ], [ %indvars.iv.next, %40 ]
  %.04959.us = phi ptr [ %39, %.lr.ph.us ], [ %78, %40 ]
  %41 = getelementptr inbounds i8, ptr %28, i64 %indvars.iv
  %42 = load i8, ptr %41, align 1
  %43 = getelementptr inbounds i8, ptr %31, i64 %indvars.iv
  %44 = load i8, ptr %43, align 1
  %45 = getelementptr inbounds i8, ptr %34, i64 %indvars.iv
  %46 = load i8, ptr %45, align 1
  %47 = zext i8 %46 to i64
  %48 = getelementptr inbounds i32, ptr %13, i64 %47
  %49 = load i32, ptr %48, align 4
  %50 = xor i8 %42, -1
  %.neg53.us = zext i8 %50 to i32
  %51 = sub i32 %.neg53.us, %49
  %52 = sext i32 %51 to i64
  %53 = getelementptr inbounds i8, ptr %11, i64 %52
  %54 = load i8, ptr %53, align 1
  store i8 %54, ptr %.04959.us, align 1
  %55 = zext i8 %44 to i64
  %56 = getelementptr inbounds i64, ptr %19, i64 %55
  %57 = load i64, ptr %56, align 8
  %58 = getelementptr inbounds i64, ptr %17, i64 %47
  %59 = load i64, ptr %58, align 8
  %60 = add nsw i64 %59, %57
  %61 = lshr i64 %60, 16
  %62 = trunc i64 %61 to i32
  %63 = sub i32 %.neg53.us, %62
  %64 = sext i32 %63 to i64
  %65 = getelementptr inbounds i8, ptr %11, i64 %64
  %66 = load i8, ptr %65, align 1
  %67 = getelementptr inbounds i8, ptr %.04959.us, i64 1
  store i8 %66, ptr %67, align 1
  %68 = getelementptr inbounds i32, ptr %15, i64 %55
  %69 = load i32, ptr %68, align 4
  %70 = sub i32 %.neg53.us, %69
  %71 = sext i32 %70 to i64
  %72 = getelementptr inbounds i8, ptr %11, i64 %71
  %73 = load i8, ptr %72, align 1
  %74 = getelementptr inbounds i8, ptr %.04959.us, i64 2
  store i8 %73, ptr %74, align 1
  %75 = getelementptr inbounds i8, ptr %37, i64 %indvars.iv
  %76 = load i8, ptr %75, align 1
  %77 = getelementptr inbounds i8, ptr %.04959.us, i64 3
  store i8 %76, ptr %77, align 1
  %78 = getelementptr inbounds i8, ptr %.04959.us, i64 4
  %indvars.iv.next = add nuw nsw i64 %indvars.iv, 1
  %exitcond.not = icmp eq i64 %indvars.iv.next, %wide.trip.count
  br i1 %exitcond.not, label %..loopexit_crit_edge.us, label %40, !llvm.loop !71

..loopexit_crit_edge.us:                          ; preds = %40
  %79 = getelementptr inbounds i8, ptr %.04760.us, i64 8
  %80 = icmp sgt i32 %.in, 1
  br i1 %80, label %.lr.ph.us, label %._crit_edge, !llvm.loop !72

._crit_edge:                                      ; preds = %..loopexit_crit_edge.us, %.lr.ph62, %5
  ret void
}